target datalayout = "e-m:e-p270:32:32-p271:32:32-p272:64:64-i64:64-i128:128-f80:128-n8:16:32:64-S128"
target triple = "x86_64-pc-linux-gnu"

%struct.AVFilterContext = type { ptr, ptr, ptr, ptr, ptr, i32, ptr, ptr, i32, ptr, ptr, i32, i32, ptr, ptr, ptr, ptr, i32, ptr, i32, i32 }
%struct.DeflickerContext = type { ptr, i32, i32, i32, i32, i32, i32, [4 x i32], [4 x i32], ptr, [129 x float], [129 x float], %struct.FFBufQueue, i32, ptr, ptr, ptr }
%struct.FFBufQueue = type { [129 x ptr], i16, i16 }
%struct.AVChannelLayout = type { i32, i32, %union.anon.1, ptr }
%union.anon.1 = type { i64 }
%struct.AVRational = type { i32, i32 }
%struct.AVFrame = type { [8 x ptr], [8 x i32], ptr, i32, i32, i32, i32, i32, %struct.AVRational, i64, i64, %struct.AVRational, i32, ptr, i32, i32, [8 x ptr], ptr, i32, ptr, i32, i32, i32, i32, i32, i32, i32, i64, ptr, i32, ptr, ptr, i64, i64, i64, i64, ptr, %struct.AVChannelLayout, i64 }

; Function Attrs: nounwind uwtable
define internal float @calc_avgy16(ptr noundef %0, ptr noundef %1) #1 {
  %3 = alloca ptr, align 8
  %4 = alloca ptr, align 8
  %5 = alloca ptr, align 8
  %6 = alloca ptr, align 8
  %7 = alloca i64, align 8
  %8 = alloca i32, align 4
  %9 = alloca i32, align 4
  store ptr %0, ptr %3, align 8, !tbaa !4
  store ptr %1, ptr %4, align 8, !tbaa !26
  call void @llvm.lifetime.start.p0(i64 8, ptr %5) #13
  %10 = load ptr, ptr %3, align 8, !tbaa !4
  %11 = getelementptr inbounds nuw %struct.AVFilterContext, ptr %10, i32 0, i32 9
  %12 = load ptr, ptr %11, align 8, !tbaa !9
  store ptr %12, ptr %5, align 8, !tbaa !22
  call void @llvm.lifetime.start.p0(i64 8, ptr %6) #13
  %13 = load ptr, ptr %4, align 8, !tbaa !26
  %14 = getelementptr inbounds nuw %struct.AVFrame, ptr %13, i32 0, i32 0
  %15 = getelementptr inbounds [8 x ptr], ptr %14, i64 0, i64 0
  %16 = load ptr, ptr %15, align 8, !tbaa !53
  store ptr %16, ptr %6, align 8, !tbaa !85
  call void @llvm.lifetime.start.p0(i64 8, ptr %7) #13
  store i64 0, ptr %7, align 8, !tbaa !78
  call void @llvm.lifetime.start.p0(i64 4, ptr %8) #13
  call void @llvm.lifetime.start.p0(i64 4, ptr %9) #13
  %17 = load ptr, ptr %5, align 8, !tbaa !22
  %18 = getelementptr inbounds nuw %struct.DeflickerContext, ptr %17, i32 0, i32 9
  %19 = load ptr, ptr %18, align 8, !tbaa !71
  %20 = load ptr, ptr %5, align 8, !tbaa !22
  %21 = getelementptr inbounds nuw %struct.DeflickerContext, ptr %20, i32 0, i32 5
  %22 = load i32, ptr %21, align 8, !tbaa !56
  %23 = shl i32 1, %22
  %24 = sext i32 %23 to i64
  %25 = mul i64 %24, 8
  call void @llvm.memset.p0.i64(ptr align 8 %19, i8 0, i64 %25, i1 false)
  store i32 0, ptr %8, align 4, !tbaa !54
  br label %26

26:                                               ; preds = %66, %2
  %27 = load i32, ptr %8, align 4, !tbaa !54
  %28 = load ptr, ptr %5, align 8, !tbaa !22
  %29 = getelementptr inbounds nuw %struct.DeflickerContext, ptr %28, i32 0, i32 8
  %30 = getelementptr inbounds [4 x i32], ptr %29, i64 0, i64 0
  %31 = load i32, ptr %30, align 8, !tbaa !54
  %32 = icmp slt i32 %27, %31
  br i1 %32, label %33, label %69

33:                                               ; preds = %26
  store i32 0, ptr %9, align 4, !tbaa !54
  br label %34

34:                                               ; preds = %54, %33
  %35 = load i32, ptr %9, align 4, !tbaa !54
  %36 = load ptr, ptr %5, align 8, !tbaa !22
  %37 = getelementptr inbounds nuw %struct.DeflickerContext, ptr %36, i32 0, i32 7
  %38 = getelementptr inbounds [4 x i32], ptr %37, i64 0, i64 0
  %39 = load i32, ptr %38, align 8, !tbaa !54
  %40 = icmp slt i32 %35, %39
  br i1 %40, label %41, label %57

41:                                               ; preds = %34
  %42 = load ptr, ptr %5, align 8, !tbaa !22
  %43 = getelementptr inbounds nuw %struct.DeflickerContext, ptr %42, i32 0, i32 9
  %44 = load ptr, ptr %43, align 8, !tbaa !71
  %45 = load ptr, ptr %6, align 8, !tbaa !85
  %46 = load i32, ptr %9, align 4, !tbaa !54
  %47 = sext i32 %46 to i64
  %48 = getelementptr inbounds i16, ptr %45, i64 %47
  %49 = load i16, ptr %48, align 2, !tbaa !87
  %50 = zext i16 %49 to i64
  %51 = getelementptr inbounds nuw i64, ptr %44, i64 %50
  %52 = load i64, ptr %51, align 8, !tbaa !78
  %53 = add i64 %52, 1
  store i64 %53, ptr %51, align 8, !tbaa !78
  br label %54

54:                                               ; preds = %41
  %55 = load i32, ptr %9, align 4, !tbaa !54
  %56 = add nsw i32 %55, 1
  store i32 %56, ptr %9, align 4, !tbaa !54
  br label %34, !llvm.loop !90

57:                                               ; preds = %34
  %58 = load ptr, ptr %4, align 8, !tbaa !26
  %59 = getelementptr inbounds nuw %struct.AVFrame, ptr %58, i32 0, i32 1
  %60 = getelementptr inbounds [8 x i32], ptr %59, i64 0, i64 0
  %61 = load i32, ptr %60, align 8, !tbaa !54
  %62 = sdiv i32 %61, 2
  %63 = load ptr, ptr %6, align 8, !tbaa !85
  %64 = sext i32 %62 to i64
  %65 = getelementptr inbounds i16, ptr %63, i64 %64
  store ptr %65, ptr %6, align 8, !tbaa !85
  br label %66

66:                                               ; preds = %57
  %67 = load i32, ptr %8, align 4, !tbaa !54
  %68 = add nsw i32 %67, 1
  store i32 %68, ptr %8, align 4, !tbaa !54
  br label %26, !llvm.loop !91

69:                                               ; preds = %26
  store i32 0, ptr %8, align 4, !tbaa !54
  br label %70

70:                                               ; preds = %90, %69
  %71 = load i32, ptr %8, align 4, !tbaa !54
  %72 = load ptr, ptr %5, align 8, !tbaa !22
  %73 = getelementptr inbounds nuw %struct.DeflickerContext, ptr %72, i32 0, i32 5
  %74 = load i32, ptr %73, align 8, !tbaa !56
  %75 = shl i32 1, %74
  %76 = icmp slt i32 %71, %75
  br i1 %76, label %77, label %93

77:                                               ; preds = %70
  %78 = load ptr, ptr %5, align 8, !tbaa !22
  %79 = getelementptr inbounds nuw %struct.DeflickerContext, ptr %78, i32 0, i32 9
  %80 = load ptr, ptr %79, align 8, !tbaa !71
  %81 = load i32, ptr %8, align 4, !tbaa !54
  %82 = sext i32 %81 to i64
  %83 = getelementptr inbounds i64, ptr %80, i64 %82
  %84 = load i64, ptr %83, align 8, !tbaa !78
  %85 = load i32, ptr %8, align 4, !tbaa !54
  %86 = sext i32 %85 to i64
  %87 = mul i64 %84, %86
  %88 = load i64, ptr %7, align 8, !tbaa !78
  %89 = add i64 %88, %87
  store i64 %89, ptr %7, align 8, !tbaa !78
  br label %90

90:                                               ; preds = %77
  %91 = load i32, ptr %8, align 4, !tbaa !54
  %92 = add nsw i32 %91, 1
  store i32 %92, ptr %8, align 4, !tbaa !54
  br label %70, !llvm.loop !92

93:                                               ; preds = %70
  %94 = load i64, ptr %7, align 8, !tbaa !78
  %95 = sitofp i64 %94 to float
  %96 = fmul nsz float 1.000000e+00, %95
  %97 = load ptr, ptr %5, align 8, !tbaa !22
  %98 = getelementptr inbounds nuw %struct.DeflickerContext, ptr %97, i32 0, i32 8
  %99 = getelementptr inbounds [4 x i32], ptr %98, i64 0, i64 0
  %100 = load i32, ptr %99, align 8, !tbaa !54
  %101 = load ptr, ptr %5, align 8, !tbaa !22
  %102 = getelementptr inbounds nuw %struct.DeflickerContext, ptr %101, i32 0, i32 7
  %103 = getelementptr inbounds [4 x i32], ptr %102, i64 0, i64 0
  %104 = load i32, ptr %103, align 8, !tbaa !54
  %105 = mul nsw i32 %100, %104
  %106 = sitofp i32 %105 to float
  %107 = fdiv nsz float %96, %106
  call void @llvm.lifetime.end.p0(i64 4, ptr %9) #13
  call void @llvm.lifetime.end.p0(i64 4, ptr %8) #13
  call void @llvm.lifetime.end.p0(i64 8, ptr %7) #13
  call void @llvm.lifetime.end.p0(i64 8, ptr %6) #13
  call void @llvm.lifetime.end.p0(i64 8, ptr %5) #13
  ret float %107
}